
x64o:     file format elf64-x86-64


Disassembly of section .init:

0000000000400390 <_init>:
  400390:	48 83 ec 08          	sub    rsp,0x8
  400394:	48 8b 05 5d 0c 20 00 	mov    rax,QWORD PTR [rip+0x200c5d]        # 600ff8 <__gmon_start__>
  40039b:	48 85 c0             	test   rax,rax
  40039e:	74 02                	je     4003a2 <_init+0x12>
  4003a0:	ff d0                	call   rax
  4003a2:	48 83 c4 08          	add    rsp,0x8
  4003a6:	c3                   	ret    

Disassembly of section .text:

00000000004003b0 <main>:
  4003b0:	31 c0                	xor    eax,eax
  4003b2:	c3                   	ret    
  4003b3:	66 2e 0f 1f 84 00 00 	nop    WORD PTR cs:[rax+rax*1+0x0]
  4003ba:	00 00 00 
  4003bd:	0f 1f 00             	nop    DWORD PTR [rax]

00000000004003c0 <_start>:
  4003c0:	31 ed                	xor    ebp,ebp
  4003c2:	49 89 d1             	mov    r9,rdx
  4003c5:	5e                   	pop    rsi
  4003c6:	48 89 e2             	mov    rdx,rsp
  4003c9:	48 83 e4 f0          	and    rsp,0xfffffffffffffff0
  4003cd:	50                   	push   rax
  4003ce:	54                   	push   rsp
  4003cf:	49 c7 c0 20 05 40 00 	mov    r8,0x400520
  4003d6:	48 c7 c1 b0 04 40 00 	mov    rcx,0x4004b0
  4003dd:	48 c7 c7 b0 03 40 00 	mov    rdi,0x4003b0
  4003e4:	ff 15 06 0c 20 00    	call   QWORD PTR [rip+0x200c06]        # 600ff0 <__libc_start_main@GLIBC_2.2.5>
  4003ea:	f4                   	hlt    
  4003eb:	0f 1f 44 00 00       	nop    DWORD PTR [rax+rax*1+0x0]

00000000004003f0 <_dl_relocate_static_pie>:
  4003f0:	f3 c3                	repz ret 
  4003f2:	66 2e 0f 1f 84 00 00 	nop    WORD PTR cs:[rax+rax*1+0x0]
  4003f9:	00 00 00 
  4003fc:	0f 1f 40 00          	nop    DWORD PTR [rax+0x0]

0000000000400400 <deregister_tm_clones>:
  400400:	55                   	push   rbp
  400401:	b8 28 10 60 00       	mov    eax,0x601028
  400406:	48 3d 28 10 60 00    	cmp    rax,0x601028
  40040c:	48 89 e5             	mov    rbp,rsp
  40040f:	74 17                	je     400428 <deregister_tm_clones+0x28>
  400411:	b8 00 00 00 00       	mov    eax,0x0
  400416:	48 85 c0             	test   rax,rax
  400419:	74 0d                	je     400428 <deregister_tm_clones+0x28>
  40041b:	5d                   	pop    rbp
  40041c:	bf 28 10 60 00       	mov    edi,0x601028
  400421:	ff e0                	jmp    rax
  400423:	0f 1f 44 00 00       	nop    DWORD PTR [rax+rax*1+0x0]
  400428:	5d                   	pop    rbp
  400429:	c3                   	ret    
  40042a:	66 0f 1f 44 00 00    	nop    WORD PTR [rax+rax*1+0x0]

0000000000400430 <register_tm_clones>:
  400430:	be 28 10 60 00       	mov    esi,0x601028
  400435:	55                   	push   rbp
  400436:	48 81 ee 28 10 60 00 	sub    rsi,0x601028
  40043d:	48 89 e5             	mov    rbp,rsp
  400440:	48 c1 fe 03          	sar    rsi,0x3
  400444:	48 89 f0             	mov    rax,rsi
  400447:	48 c1 e8 3f          	shr    rax,0x3f
  40044b:	48 01 c6             	add    rsi,rax
  40044e:	48 d1 fe             	sar    rsi,1
  400451:	74 15                	je     400468 <register_tm_clones+0x38>
  400453:	b8 00 00 00 00       	mov    eax,0x0
  400458:	48 85 c0             	test   rax,rax
  40045b:	74 0b                	je     400468 <register_tm_clones+0x38>
  40045d:	5d                   	pop    rbp
  40045e:	bf 28 10 60 00       	mov    edi,0x601028
  400463:	ff e0                	jmp    rax
  400465:	0f 1f 00             	nop    DWORD PTR [rax]
  400468:	5d                   	pop    rbp
  400469:	c3                   	ret    
  40046a:	66 0f 1f 44 00 00    	nop    WORD PTR [rax+rax*1+0x0]

0000000000400470 <__do_global_dtors_aux>:
  400470:	80 3d b1 0b 20 00 00 	cmp    BYTE PTR [rip+0x200bb1],0x0        # 601028 <__TMC_END__>
  400477:	75 17                	jne    400490 <__do_global_dtors_aux+0x20>
  400479:	55                   	push   rbp
  40047a:	48 89 e5             	mov    rbp,rsp
  40047d:	e8 7e ff ff ff       	call   400400 <deregister_tm_clones>
  400482:	c6 05 9f 0b 20 00 01 	mov    BYTE PTR [rip+0x200b9f],0x1        # 601028 <__TMC_END__>
  400489:	5d                   	pop    rbp
  40048a:	c3                   	ret    
  40048b:	0f 1f 44 00 00       	nop    DWORD PTR [rax+rax*1+0x0]
  400490:	f3 c3                	repz ret 
  400492:	0f 1f 40 00          	nop    DWORD PTR [rax+0x0]
  400496:	66 2e 0f 1f 84 00 00 	nop    WORD PTR cs:[rax+rax*1+0x0]
  40049d:	00 00 00 

00000000004004a0 <frame_dummy>:
  4004a0:	55                   	push   rbp
  4004a1:	48 89 e5             	mov    rbp,rsp
  4004a4:	5d                   	pop    rbp
  4004a5:	eb 89                	jmp    400430 <register_tm_clones>
  4004a7:	66 0f 1f 84 00 00 00 	nop    WORD PTR [rax+rax*1+0x0]
  4004ae:	00 00 

00000000004004b0 <__libc_csu_init>:
  4004b0:	41 57                	push   r15
  4004b2:	41 56                	push   r14
  4004b4:	49 89 d7             	mov    r15,rdx
  4004b7:	41 55                	push   r13
  4004b9:	41 54                	push   r12
  4004bb:	4c 8d 25 8e 09 20 00 	lea    r12,[rip+0x20098e]        # 600e50 <__frame_dummy_init_array_entry>
  4004c2:	55                   	push   rbp
  4004c3:	48 8d 2d 8e 09 20 00 	lea    rbp,[rip+0x20098e]        # 600e58 <__init_array_end>
  4004ca:	53                   	push   rbx
  4004cb:	41 89 fd             	mov    r13d,edi
  4004ce:	49 89 f6             	mov    r14,rsi
  4004d1:	4c 29 e5             	sub    rbp,r12
  4004d4:	48 83 ec 08          	sub    rsp,0x8
  4004d8:	48 c1 fd 03          	sar    rbp,0x3
  4004dc:	e8 af fe ff ff       	call   400390 <_init>
  4004e1:	48 85 ed             	test   rbp,rbp
  4004e4:	74 20                	je     400506 <__libc_csu_init+0x56>
  4004e6:	31 db                	xor    ebx,ebx
  4004e8:	0f 1f 84 00 00 00 00 	nop    DWORD PTR [rax+rax*1+0x0]
  4004ef:	00 
  4004f0:	4c 89 fa             	mov    rdx,r15
  4004f3:	4c 89 f6             	mov    rsi,r14
  4004f6:	44 89 ef             	mov    edi,r13d
  4004f9:	41 ff 14 dc          	call   QWORD PTR [r12+rbx*8]
  4004fd:	48 83 c3 01          	add    rbx,0x1
  400501:	48 39 dd             	cmp    rbp,rbx
  400504:	75 ea                	jne    4004f0 <__libc_csu_init+0x40>
  400506:	48 83 c4 08          	add    rsp,0x8
  40050a:	5b                   	pop    rbx
  40050b:	5d                   	pop    rbp
  40050c:	41 5c                	pop    r12
  40050e:	41 5d                	pop    r13
  400510:	41 5e                	pop    r14
  400512:	41 5f                	pop    r15
  400514:	c3                   	ret    
  400515:	90                   	nop
  400516:	66 2e 0f 1f 84 00 00 	nop    WORD PTR cs:[rax+rax*1+0x0]
  40051d:	00 00 00 

0000000000400520 <__libc_csu_fini>:
  400520:	f3 c3                	repz ret 

Disassembly of section .fini:

0000000000400524 <_fini>:
  400524:	48 83 ec 08          	sub    rsp,0x8
  400528:	48 83 c4 08          	add    rsp,0x8
  40052c:	c3                   	ret    
