
x86o:     file format elf32-i386


Disassembly of section .init:

0804828c <_init>:
 804828c:	53                   	push   ebx
 804828d:	83 ec 08             	sub    esp,0x8
 8048290:	e8 ab 00 00 00       	call   8048340 <__x86.get_pc_thunk.bx>
 8048295:	81 c3 6b 1d 00 00    	add    ebx,0x1d6b
 804829b:	8b 83 fc ff ff ff    	mov    eax,DWORD PTR [ebx-0x4]
 80482a1:	85 c0                	test   eax,eax
 80482a3:	74 05                	je     80482aa <_init+0x1e>
 80482a5:	e8 26 00 00 00       	call   80482d0 <__gmon_start__@plt>
 80482aa:	83 c4 08             	add    esp,0x8
 80482ad:	5b                   	pop    ebx
 80482ae:	c3                   	ret    

Disassembly of section .plt:

080482b0 <.plt>:
 80482b0:	ff 35 04 a0 04 08    	push   DWORD PTR ds:0x804a004
 80482b6:	ff 25 08 a0 04 08    	jmp    DWORD PTR ds:0x804a008
 80482bc:	00 00                	add    BYTE PTR [eax],al
	...

080482c0 <__libc_start_main@plt>:
 80482c0:	ff 25 0c a0 04 08    	jmp    DWORD PTR ds:0x804a00c
 80482c6:	68 00 00 00 00       	push   0x0
 80482cb:	e9 e0 ff ff ff       	jmp    80482b0 <.plt>

Disassembly of section .plt.got:

080482d0 <__gmon_start__@plt>:
 80482d0:	ff 25 fc 9f 04 08    	jmp    DWORD PTR ds:0x8049ffc
 80482d6:	66 90                	xchg   ax,ax

Disassembly of section .text:

080482e0 <main>:
 80482e0:	31 c0                	xor    eax,eax
 80482e2:	c3                   	ret    
 80482e3:	66 90                	xchg   ax,ax
 80482e5:	66 90                	xchg   ax,ax
 80482e7:	66 90                	xchg   ax,ax
 80482e9:	66 90                	xchg   ax,ax
 80482eb:	66 90                	xchg   ax,ax
 80482ed:	66 90                	xchg   ax,ax
 80482ef:	90                   	nop

080482f0 <_start>:
 80482f0:	31 ed                	xor    ebp,ebp
 80482f2:	5e                   	pop    esi
 80482f3:	89 e1                	mov    ecx,esp
 80482f5:	83 e4 f0             	and    esp,0xfffffff0
 80482f8:	50                   	push   eax
 80482f9:	54                   	push   esp
 80482fa:	52                   	push   edx
 80482fb:	e8 23 00 00 00       	call   8048323 <_start+0x33>
 8048300:	81 c3 00 1d 00 00    	add    ebx,0x1d00
 8048306:	8d 83 70 e4 ff ff    	lea    eax,[ebx-0x1b90]
 804830c:	50                   	push   eax
 804830d:	8d 83 10 e4 ff ff    	lea    eax,[ebx-0x1bf0]
 8048313:	50                   	push   eax
 8048314:	51                   	push   ecx
 8048315:	56                   	push   esi
 8048316:	c7 c0 e0 82 04 08    	mov    eax,0x80482e0
 804831c:	50                   	push   eax
 804831d:	e8 9e ff ff ff       	call   80482c0 <__libc_start_main@plt>
 8048322:	f4                   	hlt    
 8048323:	8b 1c 24             	mov    ebx,DWORD PTR [esp]
 8048326:	c3                   	ret    
 8048327:	66 90                	xchg   ax,ax
 8048329:	66 90                	xchg   ax,ax
 804832b:	66 90                	xchg   ax,ax
 804832d:	66 90                	xchg   ax,ax
 804832f:	90                   	nop

08048330 <_dl_relocate_static_pie>:
 8048330:	f3 c3                	repz ret 
 8048332:	66 90                	xchg   ax,ax
 8048334:	66 90                	xchg   ax,ax
 8048336:	66 90                	xchg   ax,ax
 8048338:	66 90                	xchg   ax,ax
 804833a:	66 90                	xchg   ax,ax
 804833c:	66 90                	xchg   ax,ax
 804833e:	66 90                	xchg   ax,ax

08048340 <__x86.get_pc_thunk.bx>:
 8048340:	8b 1c 24             	mov    ebx,DWORD PTR [esp]
 8048343:	c3                   	ret    
 8048344:	66 90                	xchg   ax,ax
 8048346:	66 90                	xchg   ax,ax
 8048348:	66 90                	xchg   ax,ax
 804834a:	66 90                	xchg   ax,ax
 804834c:	66 90                	xchg   ax,ax
 804834e:	66 90                	xchg   ax,ax

08048350 <deregister_tm_clones>:
 8048350:	b8 18 a0 04 08       	mov    eax,0x804a018
 8048355:	3d 18 a0 04 08       	cmp    eax,0x804a018
 804835a:	74 24                	je     8048380 <deregister_tm_clones+0x30>
 804835c:	b8 00 00 00 00       	mov    eax,0x0
 8048361:	85 c0                	test   eax,eax
 8048363:	74 1b                	je     8048380 <deregister_tm_clones+0x30>
 8048365:	55                   	push   ebp
 8048366:	89 e5                	mov    ebp,esp
 8048368:	83 ec 14             	sub    esp,0x14
 804836b:	68 18 a0 04 08       	push   0x804a018
 8048370:	ff d0                	call   eax
 8048372:	83 c4 10             	add    esp,0x10
 8048375:	c9                   	leave  
 8048376:	c3                   	ret    
 8048377:	89 f6                	mov    esi,esi
 8048379:	8d bc 27 00 00 00 00 	lea    edi,[edi+eiz*1+0x0]
 8048380:	f3 c3                	repz ret 
 8048382:	8d b4 26 00 00 00 00 	lea    esi,[esi+eiz*1+0x0]
 8048389:	8d bc 27 00 00 00 00 	lea    edi,[edi+eiz*1+0x0]

08048390 <register_tm_clones>:
 8048390:	b8 18 a0 04 08       	mov    eax,0x804a018
 8048395:	2d 18 a0 04 08       	sub    eax,0x804a018
 804839a:	c1 f8 02             	sar    eax,0x2
 804839d:	89 c2                	mov    edx,eax
 804839f:	c1 ea 1f             	shr    edx,0x1f
 80483a2:	01 d0                	add    eax,edx
 80483a4:	d1 f8                	sar    eax,1
 80483a6:	74 20                	je     80483c8 <register_tm_clones+0x38>
 80483a8:	ba 00 00 00 00       	mov    edx,0x0
 80483ad:	85 d2                	test   edx,edx
 80483af:	74 17                	je     80483c8 <register_tm_clones+0x38>
 80483b1:	55                   	push   ebp
 80483b2:	89 e5                	mov    ebp,esp
 80483b4:	83 ec 10             	sub    esp,0x10
 80483b7:	50                   	push   eax
 80483b8:	68 18 a0 04 08       	push   0x804a018
 80483bd:	ff d2                	call   edx
 80483bf:	83 c4 10             	add    esp,0x10
 80483c2:	c9                   	leave  
 80483c3:	c3                   	ret    
 80483c4:	8d 74 26 00          	lea    esi,[esi+eiz*1+0x0]
 80483c8:	f3 c3                	repz ret 
 80483ca:	8d b6 00 00 00 00    	lea    esi,[esi+0x0]

080483d0 <__do_global_dtors_aux>:
 80483d0:	80 3d 18 a0 04 08 00 	cmp    BYTE PTR ds:0x804a018,0x0
 80483d7:	75 17                	jne    80483f0 <__do_global_dtors_aux+0x20>
 80483d9:	55                   	push   ebp
 80483da:	89 e5                	mov    ebp,esp
 80483dc:	83 ec 08             	sub    esp,0x8
 80483df:	e8 6c ff ff ff       	call   8048350 <deregister_tm_clones>
 80483e4:	c6 05 18 a0 04 08 01 	mov    BYTE PTR ds:0x804a018,0x1
 80483eb:	c9                   	leave  
 80483ec:	c3                   	ret    
 80483ed:	8d 76 00             	lea    esi,[esi+0x0]
 80483f0:	f3 c3                	repz ret 
 80483f2:	8d b4 26 00 00 00 00 	lea    esi,[esi+eiz*1+0x0]
 80483f9:	8d bc 27 00 00 00 00 	lea    edi,[edi+eiz*1+0x0]

08048400 <frame_dummy>:
 8048400:	55                   	push   ebp
 8048401:	89 e5                	mov    ebp,esp
 8048403:	5d                   	pop    ebp
 8048404:	eb 8a                	jmp    8048390 <register_tm_clones>
 8048406:	66 90                	xchg   ax,ax
 8048408:	66 90                	xchg   ax,ax
 804840a:	66 90                	xchg   ax,ax
 804840c:	66 90                	xchg   ax,ax
 804840e:	66 90                	xchg   ax,ax

08048410 <__libc_csu_init>:
 8048410:	55                   	push   ebp
 8048411:	57                   	push   edi
 8048412:	56                   	push   esi
 8048413:	53                   	push   ebx
 8048414:	e8 27 ff ff ff       	call   8048340 <__x86.get_pc_thunk.bx>
 8048419:	81 c3 e7 1b 00 00    	add    ebx,0x1be7
 804841f:	83 ec 0c             	sub    esp,0xc
 8048422:	8b 6c 24 28          	mov    ebp,DWORD PTR [esp+0x28]
 8048426:	8d b3 10 ff ff ff    	lea    esi,[ebx-0xf0]
 804842c:	e8 5b fe ff ff       	call   804828c <_init>
 8048431:	8d 83 0c ff ff ff    	lea    eax,[ebx-0xf4]
 8048437:	29 c6                	sub    esi,eax
 8048439:	c1 fe 02             	sar    esi,0x2
 804843c:	85 f6                	test   esi,esi
 804843e:	74 25                	je     8048465 <__libc_csu_init+0x55>
 8048440:	31 ff                	xor    edi,edi
 8048442:	8d b6 00 00 00 00    	lea    esi,[esi+0x0]
 8048448:	83 ec 04             	sub    esp,0x4
 804844b:	55                   	push   ebp
 804844c:	ff 74 24 2c          	push   DWORD PTR [esp+0x2c]
 8048450:	ff 74 24 2c          	push   DWORD PTR [esp+0x2c]
 8048454:	ff 94 bb 0c ff ff ff 	call   DWORD PTR [ebx+edi*4-0xf4]
 804845b:	83 c7 01             	add    edi,0x1
 804845e:	83 c4 10             	add    esp,0x10
 8048461:	39 fe                	cmp    esi,edi
 8048463:	75 e3                	jne    8048448 <__libc_csu_init+0x38>
 8048465:	83 c4 0c             	add    esp,0xc
 8048468:	5b                   	pop    ebx
 8048469:	5e                   	pop    esi
 804846a:	5f                   	pop    edi
 804846b:	5d                   	pop    ebp
 804846c:	c3                   	ret    
 804846d:	8d 76 00             	lea    esi,[esi+0x0]

08048470 <__libc_csu_fini>:
 8048470:	f3 c3                	repz ret 

Disassembly of section .fini:

08048474 <_fini>:
 8048474:	53                   	push   ebx
 8048475:	83 ec 08             	sub    esp,0x8
 8048478:	e8 c3 fe ff ff       	call   8048340 <__x86.get_pc_thunk.bx>
 804847d:	81 c3 83 1b 00 00    	add    ebx,0x1b83
 8048483:	83 c4 08             	add    esp,0x8
 8048486:	5b                   	pop    ebx
 8048487:	c3                   	ret    
